; Function Attrs: mustprogress uwtable
define dso_local void @_ZN23btConvexConvexAlgorithmC2EP20btPersistentManifoldRK36btCollisionAlgorithmConstructionInfoPK24btCollisionObjectWrapperS7_P30btConvexPenetrationDepthSolverii(ptr noundef nonnull align 8 dereferenceable(116) %0, ptr noundef %1, ptr noundef nonnull align 8 dereferenceable(16) %2, ptr noundef %3, ptr noundef %4, ptr noundef %5, i32 noundef %6, i32 noundef %7) unnamed_addr #4 align 2 personality ptr @__gxx_personality_v0 {
  tail call void @_ZN30btActivatingCollisionAlgorithmC2ERK36btCollisionAlgorithmConstructionInfoPK24btCollisionObjectWrapperS5_(ptr noundef nonnull align 8 dereferenceable(16) %0, ptr noundef nonnull align 8 dereferenceable(16) %2, ptr noundef %3, ptr noundef %4)
  store ptr getelementptr inbounds nuw inrange(-16, 40) (i8, ptr @_ZTV23btConvexConvexAlgorithm, i64 16), ptr %0, align 8, !tbaa !9
  %9 = getelementptr inbounds nuw i8, ptr %0, i64 16
  store ptr %5, ptr %9, align 8, !tbaa !18
  %10 = getelementptr inbounds nuw i8, ptr %0, i64 48
  store i8 1, ptr %10, align 8, !tbaa !27
  %11 = getelementptr inbounds nuw i8, ptr %0, i64 40
  store ptr null, ptr %11, align 8, !tbaa !28
  %12 = getelementptr inbounds nuw i8, ptr %0, i64 28
  store i32 0, ptr %12, align 4, !tbaa !29
  %13 = getelementptr inbounds nuw i8, ptr %0, i64 32
  store i32 0, ptr %13, align 8, !tbaa !30
  %14 = getelementptr inbounds nuw i8, ptr %0, i64 80
  store i8 1, ptr %14, align 8, !tbaa !27
  %15 = getelementptr inbounds nuw i8, ptr %0, i64 72
  store ptr null, ptr %15, align 8, !tbaa !28
  %16 = getelementptr inbounds nuw i8, ptr %0, i64 60
  store i32 0, ptr %16, align 4, !tbaa !29
  %17 = getelementptr inbounds nuw i8, ptr %0, i64 64
  store i32 0, ptr %17, align 8, !tbaa !30
  %18 = getelementptr inbounds nuw i8, ptr %0, i64 88
  store i8 0, ptr %18, align 8, !tbaa !31
  %19 = getelementptr inbounds nuw i8, ptr %0, i64 96
  store ptr %1, ptr %19, align 8, !tbaa !32
  %20 = getelementptr inbounds nuw i8, ptr %0, i64 104
  store i8 0, ptr %20, align 8, !tbaa !33
  %21 = getelementptr inbounds nuw i8, ptr %0, i64 108
  store i32 %6, ptr %21, align 4, !tbaa !34
  %22 = getelementptr inbounds nuw i8, ptr %0, i64 112
  store i32 %7, ptr %22, align 8, !tbaa !35
  ret void
}